; Function Attrs: mustprogress nofree norecurse nosync nounwind willreturn memory(read, inaccessiblemem: none) uwtable
define internal noundef zeroext i1 @_ZNK19OpenColorIO_v2_4dev12_GLOBAL__N_114ECRendererBase18hasDynamicPropertyENS_19DynamicPropertyTypeE(ptr nocapture noundef nonnull readonly align 8 dereferenceable(64) %this, i32 noundef %type) unnamed_addr #10 align 2 {
entry:
  %0 = icmp ult i32 %type, 3
  br i1 %0, label %switch.lookup, label %sw.epilog

switch.lookup:                                    ; preds = %entry
  %1 = shl nuw nsw i32 %type, 4
  %2 = or disjoint i32 %1, 8
  %switch.offset = zext nneg i32 %2 to i64
  %m_gamma = getelementptr inbounds i8, ptr %this, i64 %switch.offset
  %3 = load ptr, ptr %m_gamma, align 8
  %m_isDynamic.i3 = getelementptr inbounds i8, ptr %3, i64 12
  %4 = load i8, ptr %m_isDynamic.i3, align 4
  %5 = and i8 %4, 1
  %tobool.i4 = icmp ne i8 %5, 0
  br label %sw.epilog

sw.epilog:                                        ; preds = %entry, %switch.lookup
  %res.0.shrunk = phi i1 [ false, %entry ], [ %tobool.i4, %switch.lookup ]
  ret i1 %res.0.shrunk
}